; Function Attrs: mustprogress nounwind uwtable
define dso_local void @_ZN5clang14JSONNodeDumper13VisitGotoStmtEPKNS_8GotoStmtE(ptr noundef nonnull align 8 dereferenceable(1312) %0, ptr nocapture noundef readonly %1) local_unnamed_addr #0 align 2 {
  %3 = alloca %"class.llvm::json::Value", align 8
  %4 = alloca %"class.std::__cxx11::basic_string", align 8
  %5 = getelementptr inbounds nuw i8, ptr %0, i64 1048
  %6 = getelementptr inbounds nuw i8, ptr %1, i64 8
  %7 = load ptr, ptr %6, align 8
  call void @_ZN5clang14JSONNodeDumper27createPointerRepresentationB5cxx11EPKv(ptr dead_on_unwind nonnull writable sret(%"class.std::__cxx11::basic_string") align 8 %4, ptr nonnull align 8 poison, ptr noundef %7)
  call void @_ZN4llvm4json5ValueC2ENSt7__cxx1112basic_stringIcSt11char_traitsIcESaIcEEE(ptr noundef nonnull align 8 dereferenceable(40) %3, ptr noundef nonnull %4)
  call void @_ZN4llvm4json7OStream14attributeBeginENS_9StringRefE(ptr noundef nonnull align 8 dereferenceable(176) %5, ptr nonnull @.str.770, i64 17) #20
  call void @_ZN4llvm4json7OStream5valueERKNS0_5ValueE(ptr noundef nonnull align 8 dereferenceable(176) %5, ptr noundef nonnull align 8 dereferenceable(40) %3) #20
  call void @_ZN4llvm4json7OStream12attributeEndEv(ptr noundef nonnull align 8 dereferenceable(176) %5) #20
  call void @_ZN4llvm4json5Value7destroyEv(ptr noundef nonnull align 8 dereferenceable(40) %3) #20
  call void @_ZNSt7__cxx1112basic_stringIcSt11char_traitsIcESaIcEED1Ev(ptr noundef nonnull align 8 dereferenceable(32) %4) #20
  ret void
}